; Function Attrs: nounwind uwtable
define dso_local range(i64 0, 4294967296) i64 @enum_smaller(ptr noundef readonly captures(none) %0) local_unnamed_addr #0 {
  %2 = getelementptr inbounds nuw i8, ptr %0, i64 32
  %3 = load i64, ptr %2, align 8
  %4 = trunc i64 %3 to i32
  %5 = getelementptr inbounds nuw i8, ptr %0, i64 48
  %6 = load i64, ptr %5, align 8
  %7 = trunc i64 %6 to i32
  %8 = tail call fastcc i32 @enum_cmp_internal(i32 noundef %4, i32 noundef %7, ptr noundef %0)
  %9 = icmp slt i32 %8, 0
  %10 = select i1 %9, i64 %3, i64 %6
  %11 = and i64 %10, 4294967295
  ret i64 %11
}